target datalayout = "e-m:e-p270:32:32-p271:32:32-p272:64:64-i64:64-i128:128-f80:128-n8:16:32:64-S128"
target triple = "x86_64-pc-linux-gnu"

%"class.clang::SourceLocation" = type { i32 }
%"class.clang::Decl" = type <{ ptr, %"class.llvm::PointerIntPair", %"class.llvm::PointerUnion", %"class.clang::SourceLocation", i32, i8, [7 x i8] }>
%"class.llvm::PointerIntPair" = type { %"struct.llvm::detail::PunnedPointer" }
%"struct.llvm::detail::PunnedPointer" = type { [8 x i8] }
%"class.llvm::PointerUnion" = type { %"class.llvm::pointer_union_detail::PointerUnionMembers" }
%"class.llvm::pointer_union_detail::PointerUnionMembers" = type { %"class.llvm::pointer_union_detail::PointerUnionMembers.0" }
%"class.llvm::pointer_union_detail::PointerUnionMembers.0" = type { %"class.llvm::pointer_union_detail::PointerUnionMembers.1" }
%"class.llvm::pointer_union_detail::PointerUnionMembers.1" = type { %"class.llvm::PointerIntPair.2" }
%"class.llvm::PointerIntPair.2" = type { %"struct.llvm::detail::PunnedPointer.3" }
%"struct.llvm::detail::PunnedPointer.3" = type { [8 x i8] }
%"class.clang::Decl.base" = type <{ ptr, %"class.llvm::PointerIntPair", %"class.llvm::PointerUnion", %"class.clang::SourceLocation", i32, i8 }>
%"class.clang::DeclContext" = type { ptr, %union.anon.428, ptr, ptr }
%union.anon.428 = type { %"class.clang::DeclContext::RecordDeclBitfields" }
%"class.clang::DeclContext::RecordDeclBitfields" = type { i64 }
%"class.clang::SourceRange" = type { %"class.clang::SourceLocation", %"class.clang::SourceLocation" }
%"class.clang::BlockDecl" = type { %"class.clang::Decl.base", %"class.clang::DeclContext", ptr, i32, ptr, ptr, ptr, i32, i32, ptr }

; Function Attrs: mustprogress nounwind uwtable
define linkonce_odr hidden void @_ZN5clang11SourceRangeC2ENS_14SourceLocationES1_(ptr noundef nonnull align 4 dereferenceable(8) %0, i32 %1, i32 %2) unnamed_addr #0 comdat align 2 {
  %4 = alloca %"class.clang::SourceLocation", align 4
  %5 = alloca %"class.clang::SourceLocation", align 4
  %6 = alloca ptr, align 8
  %7 = getelementptr inbounds nuw %"class.clang::SourceLocation", ptr %4, i32 0, i32 0
  store i32 %1, ptr %7, align 4
  %8 = getelementptr inbounds nuw %"class.clang::SourceLocation", ptr %5, i32 0, i32 0
  store i32 %2, ptr %8, align 4
  store ptr %0, ptr %6, align 8
  %9 = load ptr, ptr %6, align 8
  %10 = getelementptr inbounds nuw %"class.clang::SourceRange", ptr %9, i32 0, i32 0
  call void @llvm.memcpy.p0.p0.i64(ptr align 4 %10, ptr align 4 %4, i64 4, i1 false)
  %11 = getelementptr inbounds nuw %"class.clang::SourceRange", ptr %9, i32 0, i32 1
  call void @llvm.memcpy.p0.p0.i64(ptr align 4 %11, ptr align 4 %5, i64 4, i1 false)
  ret void
}

; Function Attrs: mustprogress nounwind uwtable
define linkonce_odr hidden i32 @_ZNK5clang4Decl11getLocationEv(ptr noundef nonnull align 8 dereferenceable(33) %0) #0 comdat align 2 {
  %2 = alloca %"class.clang::SourceLocation", align 4
  %3 = alloca ptr, align 8
  store ptr %0, ptr %3, align 8
  %4 = load ptr, ptr %3, align 8
  %5 = getelementptr inbounds nuw %"class.clang::Decl", ptr %4, i32 0, i32 3
  call void @llvm.memcpy.p0.p0.i64(ptr align 4 %2, ptr align 8 %5, i64 4, i1 false)
  %6 = getelementptr inbounds nuw %"class.clang::SourceLocation", ptr %2, i32 0, i32 0
  %7 = load i32, ptr %6, align 4
  ret i32 %7
}

; Function Attrs: mustprogress nounwind willreturn memory(read) uwtable
define dso_local i64 @_ZNK5clang9BlockDecl14getSourceRangeEv(ptr noundef nonnull align 8 dereferenceable(128) %0) unnamed_addr #6 align 2 {
  %2 = alloca %"class.clang::SourceRange", align 4
  %3 = alloca ptr, align 8
  %4 = alloca %"class.clang::SourceLocation", align 4
  %5 = alloca %"class.clang::SourceLocation", align 4
  store ptr %0, ptr %3, align 8
  %6 = load ptr, ptr %3, align 8
  %7 = call i32 @_ZNK5clang4Decl11getLocationEv(ptr noundef nonnull align 8 dereferenceable(33) %6)
  %8 = getelementptr inbounds nuw %"class.clang::SourceLocation", ptr %4, i32 0, i32 0
  store i32 %7, ptr %8, align 4
  %9 = getelementptr inbounds nuw %"class.clang::BlockDecl", ptr %6, i32 0, i32 4
  %10 = load ptr, ptr %9, align 8
  %11 = icmp ne ptr %10, null
  br i1 %11, label %12, label %17

12:                                               ; preds = %1
  %13 = getelementptr inbounds nuw %"class.clang::BlockDecl", ptr %6, i32 0, i32 4
  %14 = load ptr, ptr %13, align 8
  %15 = call i32 @_ZNK5clang4Stmt9getEndLocEv(ptr noundef nonnull align 8 dereferenceable(8) %14) #12
  %16 = getelementptr inbounds nuw %"class.clang::SourceLocation", ptr %5, i32 0, i32 0
  store i32 %15, ptr %16, align 4
  br label %20

17:                                               ; preds = %1
  %18 = call i32 @_ZNK5clang4Decl11getLocationEv(ptr noundef nonnull align 8 dereferenceable(33) %6)
  %19 = getelementptr inbounds nuw %"class.clang::SourceLocation", ptr %5, i32 0, i32 0
  store i32 %18, ptr %19, align 4
  br label %20

20:                                               ; preds = %17, %12
  %21 = getelementptr inbounds nuw %"class.clang::SourceLocation", ptr %4, i32 0, i32 0
  %22 = load i32, ptr %21, align 4
  %23 = getelementptr inbounds nuw %"class.clang::SourceLocation", ptr %5, i32 0, i32 0
  %24 = load i32, ptr %23, align 4
  call void @_ZN5clang11SourceRangeC2ENS_14SourceLocationES1_(ptr noundef nonnull align 4 dereferenceable(8) %2, i32 %22, i32 %24)
  %25 = load i64, ptr %2, align 4
  ret i64 %25
}