; Function Attrs: mustprogress nofree nounwind willreturn memory(read) uwtable
define dso_local i64 @_ZNK5clang9BlockDecl14getSourceRangeEv(ptr nocapture noundef nonnull readonly align 8 dereferenceable(128) %0) unnamed_addr #0 align 2 {
  %2 = getelementptr inbounds nuw i8, ptr %0, i64 24
  %.sroa.0.0.copyload.i = load i32, ptr %2, align 8
  %3 = getelementptr inbounds nuw i8, ptr %0, i64 88
  %4 = load ptr, ptr %3, align 8
  %.not = icmp eq ptr %4, null
  br i1 %.not, label %7, label %5

5:                                                ; preds = %1
  %6 = tail call i32 @_ZNK5clang4Stmt9getEndLocEv(ptr noundef nonnull align 8 dereferenceable(8) %4) #26
  br label %7

7:                                                ; preds = %1, %5
  %.sroa.0.0 = phi i32 [ %6, %5 ], [ %.sroa.0.0.copyload.i, %1 ]
  %.sroa.2.0.insert.ext = zext i32 %.sroa.0.0 to i64
  %.sroa.2.0.insert.shift = shl nuw i64 %.sroa.2.0.insert.ext, 32
  %.sroa.0.0.insert.ext = zext i32 %.sroa.0.0.copyload.i to i64
  %.sroa.0.0.insert.insert = or disjoint i64 %.sroa.2.0.insert.shift, %.sroa.0.0.insert.ext
  ret i64 %.sroa.0.0.insert.insert
}